target datalayout = "e-m:e-p270:32:32-p271:32:32-p272:64:64-i64:64-i128:128-f80:128-n8:16:32:64-S128"
target triple = "x86_64-pc-linux-gnu"

%"class.clang::QualType" = type { %"class.llvm::PointerIntPair" }
%"class.llvm::PointerIntPair" = type { %"struct.llvm::detail::PunnedPointer" }
%"struct.llvm::detail::PunnedPointer" = type { [8 x i8] }
%"class.clang::Expr" = type { %"class.clang::ValueStmt", %"class.clang::QualType" }
%"class.clang::ValueStmt" = type { %"class.clang::Stmt" }
%"class.clang::Stmt" = type { %union.anon.370 }
%union.anon.370 = type { %"class.clang::Stmt::PseudoObjectExprBitfields" }
%"class.clang::Stmt::PseudoObjectExprBitfields" = type { i64 }
%"class.clang::SemaBase" = type { ptr }

; Function Attrs: mustprogress nounwind uwtable
define linkonce_odr hidden i64 @_ZNK5clang4Expr7getTypeEv(ptr noundef nonnull align 8 dereferenceable(16) %0) #0 comdat align 2 {
  %2 = alloca %"class.clang::QualType", align 8
  %3 = alloca ptr, align 8
  store ptr %0, ptr %3, align 8
  %4 = load ptr, ptr %3, align 8
  %5 = getelementptr inbounds nuw %"class.clang::Expr", ptr %4, i32 0, i32 1
  call void @llvm.memcpy.p0.p0.i64(ptr align 8 %2, ptr align 8 %5, i64 8, i1 false)
  %6 = getelementptr inbounds nuw %"class.clang::QualType", ptr %2, i32 0, i32 0
  %7 = getelementptr inbounds nuw %"class.llvm::PointerIntPair", ptr %6, i32 0, i32 0
  %8 = getelementptr inbounds nuw %"struct.llvm::detail::PunnedPointer", ptr %7, i32 0, i32 0
  %9 = load i64, ptr %8, align 8
  ret i64 %9
}

; Function Attrs: mustprogress nounwind uwtable
define dso_local void @_ZN5clang8SemaObjC23CheckTollFreeBridgeCastENS_8QualTypeEPNS_4ExprE(ptr noundef nonnull align 8 dereferenceable(328) %0, i64 %1, ptr noundef %2) #0 align 2 {
  %4 = alloca %"class.clang::QualType", align 8
  %5 = alloca ptr, align 8
  %6 = alloca ptr, align 8
  %7 = alloca i32, align 4
  %8 = alloca %"class.clang::QualType", align 8
  %9 = alloca i32, align 4
  %10 = alloca %"class.clang::QualType", align 8
  %11 = alloca i8, align 1
  %12 = alloca i8, align 1
  %13 = alloca %"class.clang::QualType", align 8
  %14 = alloca i8, align 1
  %15 = alloca i8, align 1
  %16 = alloca %"class.clang::QualType", align 8
  %17 = alloca %"class.clang::QualType", align 8
  %18 = alloca %"class.clang::QualType", align 8
  %19 = alloca i8, align 1
  %20 = alloca i8, align 1
  %21 = alloca %"class.clang::QualType", align 8
  %22 = alloca i8, align 1
  %23 = alloca i8, align 1
  %24 = alloca %"class.clang::QualType", align 8
  %25 = alloca %"class.clang::QualType", align 8
  %26 = alloca %"class.clang::QualType", align 8
  %27 = getelementptr inbounds nuw %"class.clang::QualType", ptr %4, i32 0, i32 0
  %28 = getelementptr inbounds nuw %"class.llvm::PointerIntPair", ptr %27, i32 0, i32 0
  %29 = getelementptr inbounds nuw %"struct.llvm::detail::PunnedPointer", ptr %28, i32 0, i32 0
  store i64 %1, ptr %29, align 8
  store ptr %0, ptr %5, align 8
  store ptr %2, ptr %6, align 8
  %30 = load ptr, ptr %5, align 8
  %31 = call noundef nonnull align 8 dereferenceable(841) ptr @_ZNK5clang8SemaBase11getLangOptsEv(ptr noundef nonnull align 8 dereferenceable(8) %30)
  %32 = load i64, ptr %31, align 8
  %33 = lshr i64 %32, 18
  %34 = and i64 %33, 1
  %35 = trunc i64 %34 to i32
  %36 = icmp ne i32 %35, 0
  br i1 %36, label %38, label %37

37:                                               ; preds = %3
  br label %182

38:                                               ; preds = %3
  %39 = load ptr, ptr %6, align 8
  %40 = call i64 @_ZNK5clang4Expr7getTypeEv(ptr noundef nonnull align 8 dereferenceable(16) %39)
  %41 = getelementptr inbounds nuw %"class.clang::QualType", ptr %8, i32 0, i32 0
  %42 = getelementptr inbounds nuw %"class.llvm::PointerIntPair", ptr %41, i32 0, i32 0
  %43 = getelementptr inbounds nuw %"struct.llvm::detail::PunnedPointer", ptr %42, i32 0, i32 0
  store i64 %40, ptr %43, align 8
  %44 = getelementptr inbounds nuw %"class.clang::QualType", ptr %8, i32 0, i32 0
  %45 = getelementptr inbounds nuw %"class.llvm::PointerIntPair", ptr %44, i32 0, i32 0
  %46 = getelementptr inbounds nuw %"struct.llvm::detail::PunnedPointer", ptr %45, i32 0, i32 0
  %47 = load i64, ptr %46, align 8
  %48 = call noundef i32 @_ZL28classifyTypeForARCConversionN5clang8QualTypeE(i64 %47)
  store i32 %48, ptr %7, align 4
  call void @llvm.memcpy.p0.p0.i64(ptr align 8 %10, ptr align 8 %4, i64 8, i1 false)
  %49 = getelementptr inbounds nuw %"class.clang::QualType", ptr %10, i32 0, i32 0
  %50 = getelementptr inbounds nuw %"class.llvm::PointerIntPair", ptr %49, i32 0, i32 0
  %51 = getelementptr inbounds nuw %"struct.llvm::detail::PunnedPointer", ptr %50, i32 0, i32 0
  %52 = load i64, ptr %51, align 8
  %53 = call noundef i32 @_ZL28classifyTypeForARCConversionN5clang8QualTypeE(i64 %52)
  store i32 %53, ptr %9, align 4
  %54 = load i32, ptr %9, align 4
  %55 = icmp eq i32 %54, 1
  br i1 %55, label %56, label %117

56:                                               ; preds = %38
  %57 = load i32, ptr %7, align 4
  %58 = icmp eq i32 %57, 4
  br i1 %58, label %59, label %117

59:                                               ; preds = %56
  %60 = getelementptr inbounds nuw %"class.clang::SemaBase", ptr %30, i32 0, i32 0
  %61 = load ptr, ptr %60, align 8
  call void @llvm.memcpy.p0.p0.i64(ptr align 8 %13, ptr align 8 %4, i64 8, i1 false)
  %62 = load ptr, ptr %6, align 8
  %63 = getelementptr inbounds nuw %"class.clang::QualType", ptr %13, i32 0, i32 0
  %64 = getelementptr inbounds nuw %"class.llvm::PointerIntPair", ptr %63, i32 0, i32 0
  %65 = getelementptr inbounds nuw %"struct.llvm::detail::PunnedPointer", ptr %64, i32 0, i32 0
  %66 = load i64, ptr %65, align 8
  %67 = call noundef zeroext i1 @_ZL21CheckObjCBridgeNSCastIN5clang14ObjCBridgeAttrEEbRNS0_4SemaENS0_8QualTypeEPNS0_4ExprERbb(ptr noundef nonnull align 8 dereferenceable(17560) %61, i64 %66, ptr noundef %62, ptr noundef nonnull align 1 dereferenceable(1) %11, i1 noundef zeroext false)
  %68 = zext i1 %67 to i8
  store i8 %68, ptr %12, align 1
  %69 = load i8, ptr %12, align 1
  %70 = trunc i8 %69 to i1
  br i1 %70, label %71, label %75

71:                                               ; preds = %59
  %72 = load i8, ptr %11, align 1
  %73 = trunc i8 %72 to i1
  br i1 %73, label %74, label %75

74:                                               ; preds = %71
  br label %182

75:                                               ; preds = %71, %59
  %76 = getelementptr inbounds nuw %"class.clang::SemaBase", ptr %30, i32 0, i32 0
  %77 = load ptr, ptr %76, align 8
  call void @llvm.memcpy.p0.p0.i64(ptr align 8 %16, ptr align 8 %4, i64 8, i1 false)
  %78 = load ptr, ptr %6, align 8
  %79 = getelementptr inbounds nuw %"class.clang::QualType", ptr %16, i32 0, i32 0
  %80 = getelementptr inbounds nuw %"class.llvm::PointerIntPair", ptr %79, i32 0, i32 0
  %81 = getelementptr inbounds nuw %"struct.llvm::detail::PunnedPointer", ptr %80, i32 0, i32 0
  %82 = load i64, ptr %81, align 8
  %83 = call noundef zeroext i1 @_ZL21CheckObjCBridgeNSCastIN5clang21ObjCBridgeMutableAttrEEbRNS0_4SemaENS0_8QualTypeEPNS0_4ExprERbb(ptr noundef nonnull align 8 dereferenceable(17560) %77, i64 %82, ptr noundef %78, ptr noundef nonnull align 1 dereferenceable(1) %14, i1 noundef zeroext false)
  %84 = zext i1 %83 to i8
  store i8 %84, ptr %15, align 1
  %85 = load i8, ptr %15, align 1
  %86 = trunc i8 %85 to i1
  br i1 %86, label %87, label %91

87:                                               ; preds = %75
  %88 = load i8, ptr %14, align 1
  %89 = trunc i8 %88 to i1
  br i1 %89, label %90, label %91

90:                                               ; preds = %87
  br label %182

91:                                               ; preds = %87, %75
  %92 = load i8, ptr %11, align 1
  %93 = trunc i8 %92 to i1
  br i1 %93, label %94, label %103

94:                                               ; preds = %91
  %95 = getelementptr inbounds nuw %"class.clang::SemaBase", ptr %30, i32 0, i32 0
  %96 = load ptr, ptr %95, align 8
  call void @llvm.memcpy.p0.p0.i64(ptr align 8 %17, ptr align 8 %4, i64 8, i1 false)
  %97 = load ptr, ptr %6, align 8
  %98 = getelementptr inbounds nuw %"class.clang::QualType", ptr %17, i32 0, i32 0
  %99 = getelementptr inbounds nuw %"class.llvm::PointerIntPair", ptr %98, i32 0, i32 0
  %100 = getelementptr inbounds nuw %"struct.llvm::detail::PunnedPointer", ptr %99, i32 0, i32 0
  %101 = load i64, ptr %100, align 8
  %102 = call noundef zeroext i1 @_ZL21CheckObjCBridgeNSCastIN5clang14ObjCBridgeAttrEEbRNS0_4SemaENS0_8QualTypeEPNS0_4ExprERbb(ptr noundef nonnull align 8 dereferenceable(17560) %96, i64 %101, ptr noundef %97, ptr noundef nonnull align 1 dereferenceable(1) %11, i1 noundef zeroext true)
  br label %116

103:                                              ; preds = %91
  %104 = load i8, ptr %14, align 1
  %105 = trunc i8 %104 to i1
  br i1 %105, label %106, label %115

106:                                              ; preds = %103
  %107 = getelementptr inbounds nuw %"class.clang::SemaBase", ptr %30, i32 0, i32 0
  %108 = load ptr, ptr %107, align 8
  call void @llvm.memcpy.p0.p0.i64(ptr align 8 %18, ptr align 8 %4, i64 8, i1 false)
  %109 = load ptr, ptr %6, align 8
  %110 = getelementptr inbounds nuw %"class.clang::QualType", ptr %18, i32 0, i32 0
  %111 = getelementptr inbounds nuw %"class.llvm::PointerIntPair", ptr %110, i32 0, i32 0
  %112 = getelementptr inbounds nuw %"struct.llvm::detail::PunnedPointer", ptr %111, i32 0, i32 0
  %113 = load i64, ptr %112, align 8
  %114 = call noundef zeroext i1 @_ZL21CheckObjCBridgeNSCastIN5clang21ObjCBridgeMutableAttrEEbRNS0_4SemaENS0_8QualTypeEPNS0_4ExprERbb(ptr noundef nonnull align 8 dereferenceable(17560) %108, i64 %113, ptr noundef %109, ptr noundef nonnull align 1 dereferenceable(1) %14, i1 noundef zeroext true)
  br label %115

115:                                              ; preds = %106, %103
  br label %116

116:                                              ; preds = %115, %94
  br label %182

117:                                              ; preds = %56, %38
  %118 = load i32, ptr %9, align 4
  %119 = icmp eq i32 %118, 4
  br i1 %119, label %120, label %181

120:                                              ; preds = %117
  %121 = load i32, ptr %7, align 4
  %122 = icmp eq i32 %121, 1
  br i1 %122, label %123, label %181

123:                                              ; preds = %120
  %124 = getelementptr inbounds nuw %"class.clang::SemaBase", ptr %30, i32 0, i32 0
  %125 = load ptr, ptr %124, align 8
  call void @llvm.memcpy.p0.p0.i64(ptr align 8 %21, ptr align 8 %4, i64 8, i1 false)
  %126 = load ptr, ptr %6, align 8
  %127 = getelementptr inbounds nuw %"class.clang::QualType", ptr %21, i32 0, i32 0
  %128 = getelementptr inbounds nuw %"class.llvm::PointerIntPair", ptr %127, i32 0, i32 0
  %129 = getelementptr inbounds nuw %"struct.llvm::detail::PunnedPointer", ptr %128, i32 0, i32 0
  %130 = load i64, ptr %129, align 8
  %131 = call noundef zeroext i1 @_ZL21CheckObjCBridgeCFCastIN5clang14ObjCBridgeAttrEEbRNS0_4SemaENS0_8QualTypeEPNS0_4ExprERbb(ptr noundef nonnull align 8 dereferenceable(17560) %125, i64 %130, ptr noundef %126, ptr noundef nonnull align 1 dereferenceable(1) %19, i1 noundef zeroext false)
  %132 = zext i1 %131 to i8
  store i8 %132, ptr %20, align 1
  %133 = load i8, ptr %20, align 1
  %134 = trunc i8 %133 to i1
  br i1 %134, label %135, label %139

135:                                              ; preds = %123
  %136 = load i8, ptr %19, align 1
  %137 = trunc i8 %136 to i1
  br i1 %137, label %138, label %139

138:                                              ; preds = %135
  br label %182

139:                                              ; preds = %135, %123
  %140 = getelementptr inbounds nuw %"class.clang::SemaBase", ptr %30, i32 0, i32 0
  %141 = load ptr, ptr %140, align 8
  call void @llvm.memcpy.p0.p0.i64(ptr align 8 %24, ptr align 8 %4, i64 8, i1 false)
  %142 = load ptr, ptr %6, align 8
  %143 = getelementptr inbounds nuw %"class.clang::QualType", ptr %24, i32 0, i32 0
  %144 = getelementptr inbounds nuw %"class.llvm::PointerIntPair", ptr %143, i32 0, i32 0
  %145 = getelementptr inbounds nuw %"struct.llvm::detail::PunnedPointer", ptr %144, i32 0, i32 0
  %146 = load i64, ptr %145, align 8
  %147 = call noundef zeroext i1 @_ZL21CheckObjCBridgeCFCastIN5clang21ObjCBridgeMutableAttrEEbRNS0_4SemaENS0_8QualTypeEPNS0_4ExprERbb(ptr noundef nonnull align 8 dereferenceable(17560) %141, i64 %146, ptr noundef %142, ptr noundef nonnull align 1 dereferenceable(1) %22, i1 noundef zeroext false)
  %148 = zext i1 %147 to i8
  store i8 %148, ptr %23, align 1
  %149 = load i8, ptr %23, align 1
  %150 = trunc i8 %149 to i1
  br i1 %150, label %151, label %155

151:                                              ; preds = %139
  %152 = load i8, ptr %22, align 1
  %153 = trunc i8 %152 to i1
  br i1 %153, label %154, label %155

154:                                              ; preds = %151
  br label %182

155:                                              ; preds = %151, %139
  %156 = load i8, ptr %19, align 1
  %157 = trunc i8 %156 to i1
  br i1 %157, label %158, label %167

158:                                              ; preds = %155
  %159 = getelementptr inbounds nuw %"class.clang::SemaBase", ptr %30, i32 0, i32 0
  %160 = load ptr, ptr %159, align 8
  call void @llvm.memcpy.p0.p0.i64(ptr align 8 %25, ptr align 8 %4, i64 8, i1 false)
  %161 = load ptr, ptr %6, align 8
  %162 = getelementptr inbounds nuw %"class.clang::QualType", ptr %25, i32 0, i32 0
  %163 = getelementptr inbounds nuw %"class.llvm::PointerIntPair", ptr %162, i32 0, i32 0
  %164 = getelementptr inbounds nuw %"struct.llvm::detail::PunnedPointer", ptr %163, i32 0, i32 0
  %165 = load i64, ptr %164, align 8
  %166 = call noundef zeroext i1 @_ZL21CheckObjCBridgeCFCastIN5clang14ObjCBridgeAttrEEbRNS0_4SemaENS0_8QualTypeEPNS0_4ExprERbb(ptr noundef nonnull align 8 dereferenceable(17560) %160, i64 %165, ptr noundef %161, ptr noundef nonnull align 1 dereferenceable(1) %19, i1 noundef zeroext true)
  br label %180

167:                                              ; preds = %155
  %168 = load i8, ptr %22, align 1
  %169 = trunc i8 %168 to i1
  br i1 %169, label %170, label %179

170:                                              ; preds = %167
  %171 = getelementptr inbounds nuw %"class.clang::SemaBase", ptr %30, i32 0, i32 0
  %172 = load ptr, ptr %171, align 8
  call void @llvm.memcpy.p0.p0.i64(ptr align 8 %26, ptr align 8 %4, i64 8, i1 false)
  %173 = load ptr, ptr %6, align 8
  %174 = getelementptr inbounds nuw %"class.clang::QualType", ptr %26, i32 0, i32 0
  %175 = getelementptr inbounds nuw %"class.llvm::PointerIntPair", ptr %174, i32 0, i32 0
  %176 = getelementptr inbounds nuw %"struct.llvm::detail::PunnedPointer", ptr %175, i32 0, i32 0
  %177 = load i64, ptr %176, align 8
  %178 = call noundef zeroext i1 @_ZL21CheckObjCBridgeCFCastIN5clang21ObjCBridgeMutableAttrEEbRNS0_4SemaENS0_8QualTypeEPNS0_4ExprERbb(ptr noundef nonnull align 8 dereferenceable(17560) %172, i64 %177, ptr noundef %173, ptr noundef nonnull align 1 dereferenceable(1) %22, i1 noundef zeroext true)
  br label %179

179:                                              ; preds = %170, %167
  br label %180

180:                                              ; preds = %179, %158
  br label %181

181:                                              ; preds = %180, %120, %117
  br label %182

182:                                              ; preds = %181, %154, %138, %116, %90, %74, %37
  ret void
}