; Function Attrs: mustprogress nounwind uwtable
define dso_local void @_ZN5clang8SemaObjC23CheckTollFreeBridgeCastENS_8QualTypeEPNS_4ExprE(ptr noundef nonnull align 8 dereferenceable(328) %0, i64 %1, ptr noundef %2) local_unnamed_addr #0 align 2 {
  %4 = alloca i8, align 1
  %5 = alloca i8, align 1
  %6 = alloca i8, align 1
  %7 = alloca i8, align 1
  %8 = tail call noundef nonnull align 8 dereferenceable(841) ptr @_ZNK5clang8SemaBase11getLangOptsEv(ptr noundef nonnull align 8 dereferenceable(8) %0) #18
  %9 = load i64, ptr %8, align 8
  %10 = and i64 %9, 262144
  %.not = icmp eq i64 %10, 0
  br i1 %.not, label %68, label %11

11:                                               ; preds = %3
  %12 = getelementptr inbounds nuw i8, ptr %2, i64 8
  %.sroa.0.0.copyload.i = load i64, ptr %12, align 8
  %13 = tail call fastcc noundef i32 @_ZL28classifyTypeForARCConversionN5clang8QualTypeE(i64 %.sroa.0.0.copyload.i)
  %14 = tail call fastcc noundef i32 @_ZL28classifyTypeForARCConversionN5clang8QualTypeE(i64 %1)
  %15 = icmp eq i32 %14, 1
  %16 = icmp eq i32 %13, 4
  %or.cond = and i1 %16, %15
  br i1 %or.cond, label %17, label %41

17:                                               ; preds = %11
  %18 = load ptr, ptr %0, align 8
  %19 = call fastcc noundef zeroext i1 @_ZL21CheckObjCBridgeNSCastIN5clang14ObjCBridgeAttrEEbRNS0_4SemaENS0_8QualTypeEPNS0_4ExprERbb(ptr noundef nonnull align 8 dereferenceable(17560) %18, i64 %1, ptr noundef nonnull %2, ptr noundef nonnull align 1 dereferenceable(1) %4, i1 noundef zeroext false)
  br i1 %19, label %20, label %23

20:                                               ; preds = %17
  %21 = load i8, ptr %4, align 1
  %22 = trunc i8 %21 to i1
  br i1 %22, label %68, label %23

23:                                               ; preds = %20, %17
  %24 = load ptr, ptr %0, align 8
  %25 = call fastcc noundef zeroext i1 @_ZL21CheckObjCBridgeNSCastIN5clang21ObjCBridgeMutableAttrEEbRNS0_4SemaENS0_8QualTypeEPNS0_4ExprERbb(ptr noundef nonnull align 8 dereferenceable(17560) %24, i64 %1, ptr noundef nonnull %2, ptr noundef nonnull align 1 dereferenceable(1) %5, i1 noundef zeroext false)
  br i1 %25, label %26, label %29

26:                                               ; preds = %23
  %27 = load i8, ptr %5, align 1
  %28 = trunc i8 %27 to i1
  br i1 %28, label %68, label %29

29:                                               ; preds = %26, %23
  %30 = load i8, ptr %4, align 1
  %31 = trunc i8 %30 to i1
  br i1 %31, label %32, label %35

32:                                               ; preds = %29
  %33 = load ptr, ptr %0, align 8
  %34 = call fastcc noundef zeroext i1 @_ZL21CheckObjCBridgeNSCastIN5clang14ObjCBridgeAttrEEbRNS0_4SemaENS0_8QualTypeEPNS0_4ExprERbb(ptr noundef nonnull align 8 dereferenceable(17560) %33, i64 %1, ptr noundef nonnull %2, ptr noundef nonnull align 1 dereferenceable(1) %4, i1 noundef zeroext true)
  br label %68

35:                                               ; preds = %29
  %36 = load i8, ptr %5, align 1
  %37 = trunc i8 %36 to i1
  br i1 %37, label %38, label %68

38:                                               ; preds = %35
  %39 = load ptr, ptr %0, align 8
  %40 = call fastcc noundef zeroext i1 @_ZL21CheckObjCBridgeNSCastIN5clang21ObjCBridgeMutableAttrEEbRNS0_4SemaENS0_8QualTypeEPNS0_4ExprERbb(ptr noundef nonnull align 8 dereferenceable(17560) %39, i64 %1, ptr noundef nonnull %2, ptr noundef nonnull align 1 dereferenceable(1) %5, i1 noundef zeroext true)
  br label %68

41:                                               ; preds = %11
  %42 = icmp eq i32 %14, 4
  %43 = icmp eq i32 %13, 1
  %or.cond3 = and i1 %43, %42
  br i1 %or.cond3, label %44, label %68

44:                                               ; preds = %41
  %45 = load ptr, ptr %0, align 8
  %46 = call fastcc noundef zeroext i1 @_ZL21CheckObjCBridgeCFCastIN5clang14ObjCBridgeAttrEEbRNS0_4SemaENS0_8QualTypeEPNS0_4ExprERbb(ptr noundef nonnull align 8 dereferenceable(17560) %45, i64 %1, ptr noundef nonnull %2, ptr noundef nonnull align 1 dereferenceable(1) %6, i1 noundef zeroext false)
  br i1 %46, label %47, label %50

47:                                               ; preds = %44
  %48 = load i8, ptr %6, align 1
  %49 = trunc i8 %48 to i1
  br i1 %49, label %68, label %50

50:                                               ; preds = %47, %44
  %51 = load ptr, ptr %0, align 8
  %52 = call fastcc noundef zeroext i1 @_ZL21CheckObjCBridgeCFCastIN5clang21ObjCBridgeMutableAttrEEbRNS0_4SemaENS0_8QualTypeEPNS0_4ExprERbb(ptr noundef nonnull align 8 dereferenceable(17560) %51, i64 %1, ptr noundef nonnull %2, ptr noundef nonnull align 1 dereferenceable(1) %7, i1 noundef zeroext false)
  br i1 %52, label %53, label %56

53:                                               ; preds = %50
  %54 = load i8, ptr %7, align 1
  %55 = trunc i8 %54 to i1
  br i1 %55, label %68, label %56

56:                                               ; preds = %53, %50
  %57 = load i8, ptr %6, align 1
  %58 = trunc i8 %57 to i1
  br i1 %58, label %59, label %62

59:                                               ; preds = %56
  %60 = load ptr, ptr %0, align 8
  %61 = call fastcc noundef zeroext i1 @_ZL21CheckObjCBridgeCFCastIN5clang14ObjCBridgeAttrEEbRNS0_4SemaENS0_8QualTypeEPNS0_4ExprERbb(ptr noundef nonnull align 8 dereferenceable(17560) %60, i64 %1, ptr noundef nonnull %2, ptr noundef nonnull align 1 dereferenceable(1) %6, i1 noundef zeroext true)
  br label %68

62:                                               ; preds = %56
  %63 = load i8, ptr %7, align 1
  %64 = trunc i8 %63 to i1
  br i1 %64, label %65, label %68

65:                                               ; preds = %62
  %66 = load ptr, ptr %0, align 8
  %67 = call fastcc noundef zeroext i1 @_ZL21CheckObjCBridgeCFCastIN5clang21ObjCBridgeMutableAttrEEbRNS0_4SemaENS0_8QualTypeEPNS0_4ExprERbb(ptr noundef nonnull align 8 dereferenceable(17560) %66, i64 %1, ptr noundef nonnull %2, ptr noundef nonnull align 1 dereferenceable(1) %7, i1 noundef zeroext true)
  br label %68

68:                                               ; preds = %41, %62, %65, %59, %53, %47, %32, %38, %35, %26, %20, %3
  ret void
}